; Function Attrs: mustprogress nofree norecurse nosync nounwind willreturn memory(read, inaccessiblemem: none) uwtable
define hidden noundef i32 @_ZNK3euf13th_euf_solver18get_representativeEi(ptr nocapture noundef nonnull readonly align 8 dereferenceable(108) %this, i32 noundef %v) local_unnamed_addr #7 align 2 {
entry:
  %m_var2enode.i = getelementptr inbounds i8, ptr %this, i64 88
  %0 = load ptr, ptr %m_var2enode.i, align 8
  %idxprom.i.i = zext i32 %v to i64
  %arrayidx.i.i = getelementptr inbounds ptr, ptr %0, i64 %idxprom.i.i
  %1 = load ptr, ptr %arrayidx.i.i, align 8
  %m_root.i = getelementptr inbounds i8, ptr %1, i64 64
  %2 = load ptr, ptr %m_root.i, align 8
  %m_id.i.i = getelementptr inbounds i8, ptr %this, i64 12
  %3 = load i32, ptr %m_id.i.i, align 4
  %m_th_vars.i.i = getelementptr inbounds i8, ptr %2, i64 88
  %bf.load.i.i.i.i.i = load i32, ptr %m_th_vars.i.i, align 8
  %cmp.i.i.i.i = icmp ugt i32 %bf.load.i.i.i.i.i, -257
  br i1 %cmp.i.i.i.i, label %_ZNK3euf13th_euf_solver10get_th_varEPNS_5enodeE.exit, label %do.body.i.i.i

do.body.i.i.i:                                    ; preds = %entry, %if.end5.i.i.i
  %l.0.i.i.i = phi ptr [ %4, %if.end5.i.i.i ], [ %m_th_vars.i.i, %entry ]
  %bf.load.i.i.i.i = load i32, ptr %l.0.i.i.i, align 8
  %bf.shl.i.i.i.i = shl i32 %bf.load.i.i.i.i, 24
  %bf.ashr.i.i.i.i = ashr exact i32 %bf.shl.i.i.i.i, 24
  %cmp.i.i.i = icmp eq i32 %bf.ashr.i.i.i.i, %3
  br i1 %cmp.i.i.i, label %if.then3.i.i.i, label %if.end5.i.i.i

if.then3.i.i.i:                                   ; preds = %do.body.i.i.i
  %bf.ashr.i5.i.i.i = ashr i32 %bf.load.i.i.i.i, 8
  br label %_ZNK3euf13th_euf_solver10get_th_varEPNS_5enodeE.exit

if.end5.i.i.i:                                    ; preds = %do.body.i.i.i
  %m_next.i.i.i.i = getelementptr inbounds i8, ptr %l.0.i.i.i, i64 8
  %4 = load ptr, ptr %m_next.i.i.i.i, align 8
  %tobool.not.i.i.i = icmp eq ptr %4, null
  br i1 %tobool.not.i.i.i, label %_ZNK3euf13th_euf_solver10get_th_varEPNS_5enodeE.exit, label %do.body.i.i.i, !llvm.loop !12

_ZNK3euf13th_euf_solver10get_th_varEPNS_5enodeE.exit: ; preds = %if.end5.i.i.i, %entry, %if.then3.i.i.i
  %retval.0.i.i.i = phi i32 [ %bf.ashr.i5.i.i.i, %if.then3.i.i.i ], [ -1, %entry ], [ -1, %if.end5.i.i.i ]
  ret i32 %retval.0.i.i.i
}